target datalayout = "e-m:e-p270:32:32-p271:32:32-p272:64:64-i64:64-i128:128-f80:128-n8:16:32:64-S128"
target triple = "x86_64-pc-linux-gnu"

%struct.m_area_tag = type { ptr, i64, i64, ptr }
%struct.cl_fmap = type { ptr, ptr, ptr, i64, i64, i64, i64, i8, i8, i8, i64, i64, i64, i64, ptr, ptr, ptr, ptr, ptr, ptr, ptr, i8, [16 x i8], i8, [20 x i8], i8, [32 x i8], ptr, ptr }

; Function Attrs: nounwind uwtable
define zeroext i1 @html_normalise_map_form_data(ptr noundef %0, ptr noundef %1, ptr noundef %2, ptr noundef %3, ptr noundef %4, ptr noundef %5) #0 {
  %7 = alloca ptr, align 8
  %8 = alloca ptr, align 8
  %9 = alloca ptr, align 8
  %10 = alloca ptr, align 8
  %11 = alloca ptr, align 8
  %12 = alloca ptr, align 8
  %13 = alloca i8, align 1
  %14 = alloca %struct.m_area_tag, align 8
  store ptr %0, ptr %7, align 8, !tbaa !32
  store ptr %1, ptr %8, align 8, !tbaa !67
  store ptr %2, ptr %9, align 8, !tbaa !8
  store ptr %3, ptr %10, align 8, !tbaa !3
  store ptr %4, ptr %11, align 8, !tbaa !34
  store ptr %5, ptr %12, align 8, !tbaa !21
  call void @llvm.lifetime.start.p0(i64 1, ptr %13) #12
  store i8 0, ptr %13, align 1, !tbaa !23
  call void @llvm.lifetime.start.p0(i64 32, ptr %14) #12
  %15 = load ptr, ptr %8, align 8, !tbaa !67
  %16 = getelementptr inbounds nuw %struct.cl_fmap, ptr %15, i32 0, i32 13
  %17 = load i64, ptr %16, align 8, !tbaa !68
  %18 = getelementptr inbounds nuw %struct.m_area_tag, ptr %14, i32 0, i32 1
  store i64 %17, ptr %18, align 8, !tbaa !39
  %19 = getelementptr inbounds nuw %struct.m_area_tag, ptr %14, i32 0, i32 2
  store i64 0, ptr %19, align 8, !tbaa !40
  %20 = load ptr, ptr %8, align 8, !tbaa !67
  %21 = getelementptr inbounds nuw %struct.m_area_tag, ptr %14, i32 0, i32 3
  store ptr %20, ptr %21, align 8, !tbaa !41
  %22 = load ptr, ptr %7, align 8, !tbaa !32
  %23 = load ptr, ptr %9, align 8, !tbaa !8
  %24 = load ptr, ptr %10, align 8, !tbaa !3
  %25 = load ptr, ptr %11, align 8, !tbaa !34
  %26 = load ptr, ptr %12, align 8, !tbaa !21
  %27 = call zeroext i1 @cli_html_normalise(ptr noundef %22, i32 noundef -1, ptr noundef %14, ptr noundef %23, ptr noundef %24, ptr noundef %25, ptr noundef %26)
  %28 = zext i1 %27 to i8
  store i8 %28, ptr %13, align 1, !tbaa !23
  %29 = load i8, ptr %13, align 1, !tbaa !23, !range !30, !noundef !31
  %30 = trunc i8 %29 to i1
  call void @llvm.lifetime.end.p0(i64 32, ptr %14) #12
  call void @llvm.lifetime.end.p0(i64 1, ptr %13) #12
  ret i1 %30
}

; Function Attrs: nounwind uwtable
define zeroext i1 @html_normalise_map(ptr noundef %0, ptr noundef %1, ptr noundef %2, ptr noundef %3, ptr noundef %4) #0 {
  %6 = alloca ptr, align 8
  %7 = alloca ptr, align 8
  %8 = alloca ptr, align 8
  %9 = alloca ptr, align 8
  %10 = alloca ptr, align 8
  store ptr %0, ptr %6, align 8, !tbaa !32
  store ptr %1, ptr %7, align 8, !tbaa !67
  store ptr %2, ptr %8, align 8, !tbaa !8
  store ptr %3, ptr %9, align 8, !tbaa !3
  store ptr %4, ptr %10, align 8, !tbaa !34
  %11 = load ptr, ptr %6, align 8, !tbaa !32
  %12 = load ptr, ptr %7, align 8, !tbaa !67
  %13 = load ptr, ptr %8, align 8, !tbaa !8
  %14 = load ptr, ptr %9, align 8, !tbaa !3
  %15 = load ptr, ptr %10, align 8, !tbaa !34
  %16 = call zeroext i1 @html_normalise_map_form_data(ptr noundef %11, ptr noundef %12, ptr noundef %13, ptr noundef %14, ptr noundef %15, ptr noundef null)
  ret i1 %16
}