; Function Attrs: nounwind uwtable
define noundef zeroext i1 @html_normalise_map(ptr noundef %0, ptr noundef %1, ptr noundef %2, ptr noundef %3, ptr noundef %4) local_unnamed_addr #0 {
  %6 = alloca %struct.m_area_tag, align 8
  call void @llvm.lifetime.start.p0(i64 32, ptr nonnull %6) #17
  %7 = getelementptr inbounds nuw i8, ptr %1, i64 88
  %8 = load i64, ptr %7, align 8, !tbaa !47
  %9 = getelementptr inbounds nuw i8, ptr %6, i64 8
  store i64 %8, ptr %9, align 8, !tbaa !28
  %10 = getelementptr inbounds nuw i8, ptr %6, i64 16
  store i64 0, ptr %10, align 8, !tbaa !51
  %11 = getelementptr inbounds nuw i8, ptr %6, i64 24
  store ptr %1, ptr %11, align 8, !tbaa !52
  %12 = call fastcc noundef zeroext i1 @cli_html_normalise(ptr noundef %0, ptr noundef %6, ptr noundef %2, ptr noundef %3, ptr noundef %4, ptr noundef null)
  call void @llvm.lifetime.end.p0(i64 32, ptr nonnull %6) #17
  ret i1 %12
}